target datalayout = "e-m:e-p270:32:32-p271:32:32-p272:64:64-i64:64-i128:128-f80:128-n8:16:32:64-S128"
target triple = "x86_64-unknown-linux-gnu"

%"class.std::set.0" = type { %"class.std::_Rb_tree.1" }
%"class.std::_Rb_tree.1" = type { %"struct.std::_Rb_tree<QuantLib::Observer *, QuantLib::Observer *, std::_Identity<QuantLib::Observer *>, std::less<QuantLib::Observer *>>::_Rb_tree_impl" }
%"struct.std::_Rb_tree<QuantLib::Observer *, QuantLib::Observer *, std::_Identity<QuantLib::Observer *>, std::less<QuantLib::Observer *>>::_Rb_tree_impl" = type { [8 x i8], %"struct.std::_Rb_tree_header" }
%"struct.std::_Rb_tree_header" = type { %"struct.std::_Rb_tree_node_base", i64 }
%"struct.std::_Rb_tree_node_base" = type { i32, ptr, ptr, ptr }
%"class.QuantLib::Date" = type { i64 }
%"class.boost::detail::shared_count" = type { ptr }
%"class.boost::optional.30" = type { %"class.boost::optional_detail::tc_optional_base.31" }
%"class.boost::optional_detail::tc_optional_base.31" = type { i8, i8 }
%"class.std::set" = type { %"class.std::_Rb_tree" }
%"class.std::_Rb_tree" = type { %"struct.std::_Rb_tree<boost::shared_ptr<QuantLib::Observable>, boost::shared_ptr<QuantLib::Observable>, std::_Identity<boost::shared_ptr<QuantLib::Observable>>, std::less<boost::shared_ptr<QuantLib::Observable>>>::_Rb_tree_impl" }
%"struct.std::_Rb_tree<boost::shared_ptr<QuantLib::Observable>, boost::shared_ptr<QuantLib::Observable>, std::_Identity<boost::shared_ptr<QuantLib::Observable>>, std::less<boost::shared_ptr<QuantLib::Observable>>>::_Rb_tree_impl" = type { [8 x i8], %"struct.std::_Rb_tree_header" }
%"class.QuantLib::Observable" = type { ptr, %"class.std::set.0" }
%"class.QuantLib::Observer" = type { ptr, %"class.std::set" }
%"class.QuantLib::DayCounter" = type { %"class.boost::shared_ptr.6" }
%"class.boost::shared_ptr.6" = type { ptr, %"class.boost::detail::shared_count" }
%"class.QuantLib::RiskyAssetSwap" = type { %"class.QuantLib::Instrument.base", double, double, double, double, double, i8, double, %"class.QuantLib::Schedule", %"class.QuantLib::Schedule", %"class.QuantLib::DayCounter", %"class.QuantLib::DayCounter", double, double, %"class.QuantLib::Handle", %"class.QuantLib::Handle.37", double, %"class.QuantLib::Observable", %"class.QuantLib::Observer" }
%"class.QuantLib::Instrument.base" = type { %"class.QuantLib::LazyObject.base", double, double, %"class.QuantLib::Date", %"class.std::map", %"class.boost::shared_ptr.44" }
%"class.QuantLib::LazyObject.base" = type <{ ptr, i8, i8, i8, i8 }>
%"class.std::map" = type { %"class.std::_Rb_tree.39" }
%"class.std::_Rb_tree.39" = type { %"struct.std::_Rb_tree<std::__cxx11::basic_string<char>, std::pair<const std::__cxx11::basic_string<char>, boost::any>, std::_Select1st<std::pair<const std::__cxx11::basic_string<char>, boost::any>>, std::less<std::__cxx11::basic_string<char>>>::_Rb_tree_impl" }
%"struct.std::_Rb_tree<std::__cxx11::basic_string<char>, std::pair<const std::__cxx11::basic_string<char>, boost::any>, std::_Select1st<std::pair<const std::__cxx11::basic_string<char>, boost::any>>, std::less<std::__cxx11::basic_string<char>>>::_Rb_tree_impl" = type { [8 x i8], %"struct.std::_Rb_tree_header" }
%"class.boost::shared_ptr.44" = type { ptr, %"class.boost::detail::shared_count" }
%"class.QuantLib::Schedule" = type { %"class.boost::optional", %"class.QuantLib::Calendar", i32, %"class.boost::optional.27", %"class.boost::optional.28", %"class.boost::optional.30", %"class.QuantLib::Date", %"class.QuantLib::Date", %"class.std::vector.11", %"class.std::vector.32" }
%"class.boost::optional" = type { %"class.boost::optional_detail::optional_base" }
%"class.boost::optional_detail::optional_base" = type { i8, [3 x i8], %"class.boost::optional_detail::aligned_storage" }
%"class.boost::optional_detail::aligned_storage" = type { %"union.boost::optional_detail::aligned_storage<QuantLib::Period>::dummy_u" }
%"union.boost::optional_detail::aligned_storage<QuantLib::Period>::dummy_u" = type { [8 x i8] }
%"class.QuantLib::Calendar" = type { %"class.boost::shared_ptr.7" }
%"class.boost::shared_ptr.7" = type { ptr, %"class.boost::detail::shared_count" }
%"class.boost::optional.27" = type { %"class.boost::optional_detail::tc_optional_base" }
%"class.boost::optional_detail::tc_optional_base" = type { i8, i32 }
%"class.boost::optional.28" = type { %"class.boost::optional_detail::tc_optional_base.29" }
%"class.boost::optional_detail::tc_optional_base.29" = type { i8, i32 }
%"class.std::vector.11" = type { %"struct.std::_Vector_base.12" }
%"struct.std::_Vector_base.12" = type { %"struct.std::_Vector_base<QuantLib::Date, std::allocator<QuantLib::Date>>::_Vector_impl" }
%"struct.std::_Vector_base<QuantLib::Date, std::allocator<QuantLib::Date>>::_Vector_impl" = type { %"struct.std::_Vector_base<QuantLib::Date, std::allocator<QuantLib::Date>>::_Vector_impl_data" }
%"struct.std::_Vector_base<QuantLib::Date, std::allocator<QuantLib::Date>>::_Vector_impl_data" = type { ptr, ptr, ptr }
%"class.std::vector.32" = type { %"struct.std::_Bvector_base" }
%"struct.std::_Bvector_base" = type { %"struct.std::_Bvector_base<std::allocator<bool>>::_Bvector_impl" }
%"struct.std::_Bvector_base<std::allocator<bool>>::_Bvector_impl" = type { %"struct.std::_Bvector_base<std::allocator<bool>>::_Bvector_impl_data" }
%"struct.std::_Bvector_base<std::allocator<bool>>::_Bvector_impl_data" = type { %"struct.std::_Bit_iterator", %"struct.std::_Bit_iterator", ptr }
%"struct.std::_Bit_iterator" = type { %"struct.std::_Bit_iterator_base.base", [4 x i8] }
%"struct.std::_Bit_iterator_base.base" = type <{ ptr, i32 }>
%"class.QuantLib::Handle" = type { %"class.boost::shared_ptr.36" }
%"class.boost::shared_ptr.36" = type { ptr, %"class.boost::detail::shared_count" }
%"class.QuantLib::Handle.37" = type { %"class.boost::shared_ptr.38" }
%"class.boost::shared_ptr.38" = type { ptr, %"class.boost::detail::shared_count" }
%"class.boost::shared_ptr.45" = type { ptr, %"class.boost::detail::shared_count" }

@.str.7 = private unnamed_addr constant [8 x i8] c"px != 0\00", align 1
@.str.8 = private unnamed_addr constant [102 x i8] c"generated/home/dtcxzyw/WorkSpace/SDK/vcpkg/installed/x64-linux/include/boost/smart_ptr/shared_ptr.hpp\00", align 1
@__PRETTY_FUNCTION__._ZNK5boost10shared_ptrIN8QuantLib18YieldTermStructureEEptEv = private unnamed_addr constant [153 x i8] c"typename boost::detail::sp_member_access<T>::type boost::shared_ptr<QuantLib::YieldTermStructure>::operator->() const [T = QuantLib::YieldTermStructure]\00", align 1

; Function Attrs: mustprogress nounwind uwtable
define linkonce_odr noundef nonnull align 8 dereferenceable(8) ptr @_ZNKSt6vectorIN8QuantLib4DateESaIS1_EEixEm(ptr noundef nonnull align 8 dereferenceable(24) %this, i64 noundef %__n) #1 comdat align 2 {
entry:
  %this.addr = alloca ptr, align 8
  %__n.addr = alloca i64, align 8
  store ptr %this, ptr %this.addr, align 8, !tbaa !3
  store i64 %__n, ptr %__n.addr, align 8, !tbaa !77
  %this1 = load ptr, ptr %this.addr, align 8
  %_M_impl = getelementptr inbounds nuw %"struct.std::_Vector_base.12", ptr %this1, i32 0, i32 0
  %_M_start = getelementptr inbounds nuw %"struct.std::_Vector_base<QuantLib::Date, std::allocator<QuantLib::Date>>::_Vector_impl_data", ptr %_M_impl, i32 0, i32 0
  %0 = load ptr, ptr %_M_start, align 8, !tbaa !157
  %1 = load i64, ptr %__n.addr, align 8, !tbaa !77
  %add.ptr = getelementptr inbounds nuw %"class.QuantLib::Date", ptr %0, i64 %1
  ret ptr %add.ptr
}

; Function Attrs: mustprogress nounwind uwtable
define linkonce_odr noundef i64 @_ZNKSt6vectorIN8QuantLib4DateESaIS1_EE4sizeEv(ptr noundef nonnull align 8 dereferenceable(24) %this) #1 comdat align 2 {
entry:
  %this.addr = alloca ptr, align 8
  store ptr %this, ptr %this.addr, align 8, !tbaa !3
  %this1 = load ptr, ptr %this.addr, align 8
  %_M_impl = getelementptr inbounds nuw %"struct.std::_Vector_base.12", ptr %this1, i32 0, i32 0
  %_M_finish = getelementptr inbounds nuw %"struct.std::_Vector_base<QuantLib::Date, std::allocator<QuantLib::Date>>::_Vector_impl_data", ptr %_M_impl, i32 0, i32 1
  %0 = load ptr, ptr %_M_finish, align 8, !tbaa !158
  %_M_impl2 = getelementptr inbounds nuw %"struct.std::_Vector_base.12", ptr %this1, i32 0, i32 0
  %_M_start = getelementptr inbounds nuw %"struct.std::_Vector_base<QuantLib::Date, std::allocator<QuantLib::Date>>::_Vector_impl_data", ptr %_M_impl2, i32 0, i32 0
  %1 = load ptr, ptr %_M_start, align 8, !tbaa !157
  %sub.ptr.lhs.cast = ptrtoint ptr %0 to i64
  %sub.ptr.rhs.cast = ptrtoint ptr %1 to i64
  %sub.ptr.sub = sub i64 %sub.ptr.lhs.cast, %sub.ptr.rhs.cast
  %sub.ptr.div = sdiv exact i64 %sub.ptr.sub, 8
  ret i64 %sub.ptr.div
}

; Function Attrs: inlinehint mustprogress uwtable
define linkonce_odr noundef double @_ZNK8QuantLib18YieldTermStructure8discountERKNS_4DateEb(ptr noundef nonnull align 8 dereferenceable(152) %this, ptr noundef nonnull align 8 dereferenceable(8) %d, i1 noundef zeroext %extrapolate) #4 comdat align 2 {
entry:
  %this.addr = alloca ptr, align 8
  %d.addr = alloca ptr, align 8
  %extrapolate.addr = alloca i8, align 1
  store ptr %this, ptr %this.addr, align 8, !tbaa !3
  store ptr %d, ptr %d.addr, align 8, !tbaa !3
  %storedv = zext i1 %extrapolate to i8
  store i8 %storedv, ptr %extrapolate.addr, align 1, !tbaa !24
  %this1 = load ptr, ptr %this.addr, align 8
  %0 = load ptr, ptr %d.addr, align 8, !tbaa !3
  %call = call noundef double @_ZNK8QuantLib13TermStructure17timeFromReferenceERKNS_4DateE(ptr noundef nonnull align 8 dereferenceable(64) %this1, ptr noundef nonnull align 8 dereferenceable(8) %0)
  %1 = load i8, ptr %extrapolate.addr, align 1, !tbaa !24, !range !15, !noundef !16
  %loadedv = trunc i8 %1 to i1
  %call2 = call noundef double @_ZNK8QuantLib18YieldTermStructure8discountEdb(ptr noundef nonnull align 8 dereferenceable(152) %this1, double noundef %call, i1 noundef zeroext %loadedv)
  ret double %call2
}

; Function Attrs: mustprogress uwtable
define linkonce_odr noundef ptr @_ZNK5boost10shared_ptrIN8QuantLib18YieldTermStructureEEptEv(ptr noundef nonnull align 8 dereferenceable(16) %this) #2 comdat align 2 {
entry:
  %this.addr = alloca ptr, align 8
  store ptr %this, ptr %this.addr, align 8, !tbaa !3
  %this1 = load ptr, ptr %this.addr, align 8
  %px = getelementptr inbounds nuw %"class.boost::shared_ptr.45", ptr %this1, i32 0, i32 0
  %0 = load ptr, ptr %px, align 8, !tbaa !78
  %cmp = icmp ne ptr %0, null
  %lnot = xor i1 %cmp, true
  %lnot2 = xor i1 %lnot, true
  %conv = zext i1 %lnot2 to i64
  %expval = call i64 @llvm.expect.i64(i64 %conv, i64 1)
  %tobool = icmp ne i64 %expval, 0
  br i1 %tobool, label %cond.true, label %cond.false

cond.true:                                        ; preds = %entry
  br label %cond.end

cond.false:                                       ; preds = %entry
  call void @_ZN5boost16assertion_failedEPKcS1_S1_l(ptr noundef @.str.7, ptr noundef @__PRETTY_FUNCTION__._ZNK5boost10shared_ptrIN8QuantLib18YieldTermStructureEEptEv, ptr noundef @.str.8, i64 noundef 784)
  br label %cond.end

cond.end:                                         ; preds = %cond.false, %cond.true
  %px3 = getelementptr inbounds nuw %"class.boost::shared_ptr.45", ptr %this1, i32 0, i32 0
  %1 = load ptr, ptr %px3, align 8, !tbaa !78
  ret ptr %1
}

; Function Attrs: inlinehint mustprogress nounwind uwtable
define linkonce_odr noundef nonnull align 8 dereferenceable(8) ptr @_ZNK8QuantLib8ScheduleixEm(ptr noundef nonnull align 8 dereferenceable(136) %this, i64 noundef %i) #5 comdat align 2 {
entry:
  %this.addr = alloca ptr, align 8
  %i.addr = alloca i64, align 8
  store ptr %this, ptr %this.addr, align 8, !tbaa !3
  store i64 %i, ptr %i.addr, align 8, !tbaa !77
  %this1 = load ptr, ptr %this.addr, align 8
  %dates_ = getelementptr inbounds nuw %"class.QuantLib::Schedule", ptr %this1, i32 0, i32 8
  %0 = load i64, ptr %i.addr, align 8, !tbaa !77
  %call = call noundef nonnull align 8 dereferenceable(8) ptr @_ZNKSt6vectorIN8QuantLib4DateESaIS1_EEixEm(ptr noundef nonnull align 8 dereferenceable(24) %dates_, i64 noundef %0) #15
  ret ptr %call
}

; Function Attrs: mustprogress nounwind uwtable
define linkonce_odr noundef i64 @_ZNK8QuantLib8Schedule4sizeEv(ptr noundef nonnull align 8 dereferenceable(136) %this) #1 comdat align 2 {
entry:
  %this.addr = alloca ptr, align 8
  store ptr %this, ptr %this.addr, align 8, !tbaa !3
  %this1 = load ptr, ptr %this.addr, align 8
  %dates_ = getelementptr inbounds nuw %"class.QuantLib::Schedule", ptr %this1, i32 0, i32 8
  %call = call noundef i64 @_ZNKSt6vectorIN8QuantLib4DateESaIS1_EE4sizeEv(ptr noundef nonnull align 8 dereferenceable(24) %dates_) #15
  ret i64 %call
}

; Function Attrs: mustprogress uwtable
define noundef double @_ZNK8QuantLib14RiskyAssetSwap12fixedAnnuityEv(ptr noundef nonnull align 8 dereferenceable(520) %this) #2 align 2 {
entry:
  %this.addr = alloca ptr, align 8
  %annuity = alloca double, align 8
  %i = alloca i64, align 8
  %dcf = alloca double, align 8
  %ref.tmp = alloca %"class.QuantLib::Date", align 8
  %ref.tmp6 = alloca %"class.QuantLib::Date", align 8
  store ptr %this, ptr %this.addr, align 8, !tbaa !3
  %this1 = load ptr, ptr %this.addr, align 8
  call void @llvm.lifetime.start.p0(i64 8, ptr %annuity) #15
  store double 0.000000e+00, ptr %annuity, align 8, !tbaa !25
  call void @llvm.lifetime.start.p0(i64 8, ptr %i) #15
  store i64 1, ptr %i, align 8, !tbaa !77
  br label %for.cond

for.cond:                                         ; preds = %for.inc, %entry
  %0 = load i64, ptr %i, align 8, !tbaa !77
  %floatSchedule_ = getelementptr inbounds nuw %"class.QuantLib::RiskyAssetSwap", ptr %this1, i32 0, i32 9
  %call = call noundef i64 @_ZNK8QuantLib8Schedule4sizeEv(ptr noundef nonnull align 8 dereferenceable(136) %floatSchedule_)
  %cmp = icmp ult i64 %0, %call
  br i1 %cmp, label %for.body, label %for.cond.cleanup

for.cond.cleanup:                                 ; preds = %for.cond
  call void @llvm.lifetime.end.p0(i64 8, ptr %i) #15
  br label %for.end

for.body:                                         ; preds = %for.cond
  call void @llvm.lifetime.start.p0(i64 8, ptr %dcf) #15
  %fixedDayCounter_ = getelementptr inbounds nuw %"class.QuantLib::RiskyAssetSwap", ptr %this1, i32 0, i32 10
  %floatSchedule_2 = getelementptr inbounds nuw %"class.QuantLib::RiskyAssetSwap", ptr %this1, i32 0, i32 9
  %1 = load i64, ptr %i, align 8, !tbaa !77
  %sub = sub i64 %1, 1
  %call3 = call noundef nonnull align 8 dereferenceable(8) ptr @_ZNK8QuantLib8ScheduleixEm(ptr noundef nonnull align 8 dereferenceable(136) %floatSchedule_2, i64 noundef %sub)
  %floatSchedule_4 = getelementptr inbounds nuw %"class.QuantLib::RiskyAssetSwap", ptr %this1, i32 0, i32 9
  %2 = load i64, ptr %i, align 8, !tbaa !77
  %call5 = call noundef nonnull align 8 dereferenceable(8) ptr @_ZNK8QuantLib8ScheduleixEm(ptr noundef nonnull align 8 dereferenceable(136) %floatSchedule_4, i64 noundef %2)
  call void @llvm.lifetime.start.p0(i64 8, ptr %ref.tmp) #15
  call void @_ZN8QuantLib4DateC1Ev(ptr noundef nonnull align 8 dereferenceable(8) %ref.tmp)
  call void @llvm.lifetime.start.p0(i64 8, ptr %ref.tmp6) #15
  call void @_ZN8QuantLib4DateC1Ev(ptr noundef nonnull align 8 dereferenceable(8) %ref.tmp6)
  %call7 = call noundef double @_ZNK8QuantLib10DayCounter12yearFractionERKNS_4DateES3_S3_S3_(ptr noundef nonnull align 8 dereferenceable(16) %fixedDayCounter_, ptr noundef nonnull align 8 dereferenceable(8) %call3, ptr noundef nonnull align 8 dereferenceable(8) %call5, ptr noundef nonnull align 8 dereferenceable(8) %ref.tmp, ptr noundef nonnull align 8 dereferenceable(8) %ref.tmp6)
  call void @llvm.lifetime.end.p0(i64 8, ptr %ref.tmp6) #15
  call void @llvm.lifetime.end.p0(i64 8, ptr %ref.tmp) #15
  store double %call7, ptr %dcf, align 8, !tbaa !25
  %3 = load double, ptr %dcf, align 8, !tbaa !25
  %yieldTS_ = getelementptr inbounds nuw %"class.QuantLib::RiskyAssetSwap", ptr %this1, i32 0, i32 14
  %call8 = call noundef nonnull align 8 dereferenceable(16) ptr @_ZNK8QuantLib6HandleINS_18YieldTermStructureEEptEv(ptr noundef nonnull align 8 dereferenceable(16) %yieldTS_)
  %call9 = call noundef ptr @_ZNK5boost10shared_ptrIN8QuantLib18YieldTermStructureEEptEv(ptr noundef nonnull align 8 dereferenceable(16) %call8)
  %floatSchedule_10 = getelementptr inbounds nuw %"class.QuantLib::RiskyAssetSwap", ptr %this1, i32 0, i32 9
  %4 = load i64, ptr %i, align 8, !tbaa !77
  %call11 = call noundef nonnull align 8 dereferenceable(8) ptr @_ZNK8QuantLib8ScheduleixEm(ptr noundef nonnull align 8 dereferenceable(136) %floatSchedule_10, i64 noundef %4)
  %call12 = call noundef double @_ZNK8QuantLib18YieldTermStructure8discountERKNS_4DateEb(ptr noundef nonnull align 8 dereferenceable(152) %call9, ptr noundef nonnull align 8 dereferenceable(8) %call11, i1 noundef zeroext false)
  %5 = load double, ptr %annuity, align 8, !tbaa !25
  %6 = call double @llvm.fmuladd.f64(double %3, double %call12, double %5)
  store double %6, ptr %annuity, align 8, !tbaa !25
  call void @llvm.lifetime.end.p0(i64 8, ptr %dcf) #15
  br label %for.inc

for.inc:                                          ; preds = %for.body
  %7 = load i64, ptr %i, align 8, !tbaa !77
  %inc = add i64 %7, 1
  store i64 %inc, ptr %i, align 8, !tbaa !77
  br label %for.cond, !llvm.loop !89

for.end:                                          ; preds = %for.cond.cleanup
  %8 = load double, ptr %annuity, align 8, !tbaa !25
  call void @llvm.lifetime.end.p0(i64 8, ptr %annuity) #15
  ret double %8
}