; Function Attrs: mustprogress uwtable
define noundef double @_ZNK8QuantLib14RiskyAssetSwap12fixedAnnuityEv(ptr noundef nonnull align 8 dereferenceable(520) %this) local_unnamed_addr #8 align 2 {
entry:
  %ref.tmp = alloca %"class.QuantLib::Date", align 8
  %ref.tmp6 = alloca %"class.QuantLib::Date", align 8
  %dates_.i = getelementptr inbounds nuw i8, ptr %this, i64 368
  %_M_finish.i.i = getelementptr inbounds nuw i8, ptr %this, i64 376
  %0 = load ptr, ptr %_M_finish.i.i, align 8, !tbaa !90
  %1 = load ptr, ptr %dates_.i, align 8, !tbaa !89
  %sub.ptr.lhs.cast.i.i11 = ptrtoint ptr %0 to i64
  %sub.ptr.rhs.cast.i.i12 = ptrtoint ptr %1 to i64
  %sub.ptr.sub.i.i13 = sub i64 %sub.ptr.lhs.cast.i.i11, %sub.ptr.rhs.cast.i.i12
  %cmp15 = icmp ugt i64 %sub.ptr.sub.i.i13, 8
  br i1 %cmp15, label %for.body.lr.ph, label %for.cond.cleanup

for.body.lr.ph:                                   ; preds = %entry
  %fixedDayCounter_ = getelementptr inbounds nuw i8, ptr %this, i64 432
  %yieldTS_ = getelementptr inbounds nuw i8, ptr %this, i64 480
  br label %for.body

for.cond.cleanup:                                 ; preds = %_ZNK5boost10shared_ptrIN8QuantLib18YieldTermStructureEEptEv.exit, %entry
  %annuity.0.lcssa = phi double [ 0.000000e+00, %entry ], [ %7, %_ZNK5boost10shared_ptrIN8QuantLib18YieldTermStructureEEptEv.exit ]
  ret double %annuity.0.lcssa

for.body:                                         ; preds = %for.body.lr.ph, %_ZNK5boost10shared_ptrIN8QuantLib18YieldTermStructureEEptEv.exit
  %2 = phi ptr [ %1, %for.body.lr.ph ], [ %9, %_ZNK5boost10shared_ptrIN8QuantLib18YieldTermStructureEEptEv.exit ]
  %annuity.017 = phi double [ 0.000000e+00, %for.body.lr.ph ], [ %7, %_ZNK5boost10shared_ptrIN8QuantLib18YieldTermStructureEEptEv.exit ]
  %i.016 = phi i64 [ 1, %for.body.lr.ph ], [ %inc, %_ZNK5boost10shared_ptrIN8QuantLib18YieldTermStructureEEptEv.exit ]
  %3 = getelementptr %"class.QuantLib::Date", ptr %2, i64 %i.016
  %add.ptr.i.i = getelementptr i8, ptr %3, i64 -8
  call void @llvm.lifetime.start.p0(i64 8, ptr nonnull %ref.tmp) #27
  call void @_ZN8QuantLib4DateC1Ev(ptr noundef nonnull align 8 dereferenceable(8) %ref.tmp)
  call void @llvm.lifetime.start.p0(i64 8, ptr nonnull %ref.tmp6) #27
  call void @_ZN8QuantLib4DateC1Ev(ptr noundef nonnull align 8 dereferenceable(8) %ref.tmp6)
  %call7 = call noundef double @_ZNK8QuantLib10DayCounter12yearFractionERKNS_4DateES3_S3_S3_(ptr noundef nonnull align 8 dereferenceable(16) %fixedDayCounter_, ptr noundef nonnull align 8 dereferenceable(8) %add.ptr.i.i, ptr noundef nonnull align 8 dereferenceable(8) %3, ptr noundef nonnull align 8 dereferenceable(8) %ref.tmp, ptr noundef nonnull align 8 dereferenceable(8) %ref.tmp6)
  call void @llvm.lifetime.end.p0(i64 8, ptr nonnull %ref.tmp6) #27
  call void @llvm.lifetime.end.p0(i64 8, ptr nonnull %ref.tmp) #27
  %call8 = call noundef nonnull align 8 dereferenceable(16) ptr @_ZNK8QuantLib6HandleINS_18YieldTermStructureEEptEv(ptr noundef nonnull align 8 dereferenceable(16) %yieldTS_)
  %4 = load ptr, ptr %call8, align 8, !tbaa !117
  %cmp.not.i = icmp eq ptr %4, null
  br i1 %cmp.not.i, label %cond.false.i, label %_ZNK5boost10shared_ptrIN8QuantLib18YieldTermStructureEEptEv.exit, !prof !119

cond.false.i:                                     ; preds = %for.body
  call void @_ZN5boost16assertion_failedEPKcS1_S1_l(ptr noundef nonnull @.str.7, ptr noundef nonnull @__PRETTY_FUNCTION__._ZNK5boost10shared_ptrIN8QuantLib18YieldTermStructureEEptEv, ptr noundef nonnull @.str.8, i64 noundef 784)
  %.pre.i = load ptr, ptr %call8, align 8, !tbaa !117
  br label %_ZNK5boost10shared_ptrIN8QuantLib18YieldTermStructureEEptEv.exit

_ZNK5boost10shared_ptrIN8QuantLib18YieldTermStructureEEptEv.exit: ; preds = %for.body, %cond.false.i
  %5 = phi ptr [ %4, %for.body ], [ %.pre.i, %cond.false.i ]
  %6 = load ptr, ptr %dates_.i, align 8, !tbaa !89
  %add.ptr.i.i10 = getelementptr inbounds nuw %"class.QuantLib::Date", ptr %6, i64 %i.016
  %call.i = call noundef double @_ZNK8QuantLib13TermStructure17timeFromReferenceERKNS_4DateE(ptr noundef nonnull align 8 dereferenceable(64) %5, ptr noundef nonnull align 8 dereferenceable(8) %add.ptr.i.i10)
  %call2.i = call noundef double @_ZNK8QuantLib18YieldTermStructure8discountEdb(ptr noundef nonnull align 8 dereferenceable(152) %5, double noundef %call.i, i1 noundef zeroext false)
  %7 = call double @llvm.fmuladd.f64(double %call7, double %call2.i, double %annuity.017)
  %inc = add nuw i64 %i.016, 1
  %8 = load ptr, ptr %_M_finish.i.i, align 8, !tbaa !90
  %9 = load ptr, ptr %dates_.i, align 8, !tbaa !89
  %sub.ptr.lhs.cast.i.i = ptrtoint ptr %8 to i64
  %sub.ptr.rhs.cast.i.i = ptrtoint ptr %9 to i64
  %sub.ptr.sub.i.i = sub i64 %sub.ptr.lhs.cast.i.i, %sub.ptr.rhs.cast.i.i
  %sub.ptr.div.i.i = ashr exact i64 %sub.ptr.sub.i.i, 3
  %cmp = icmp ult i64 %inc, %sub.ptr.div.i.i
  br i1 %cmp, label %for.body, label %for.cond.cleanup, !llvm.loop !127
}